; Function Attrs: mustprogress nofree norecurse nosync nounwind willreturn memory(read, inaccessiblemem: none) uwtable
define dso_local noundef zeroext i1 @_ZN14btGeometryUtil19isPointInsidePlanesERK20btAlignedObjectArrayI9btVector3ERKS1_f(ptr noundef nonnull readonly align 8 captures(none) dereferenceable(25) %0, ptr noundef nonnull readonly align 4 captures(none) dereferenceable(16) %1, float noundef %2) local_unnamed_addr #1 align 2 {
  %4 = getelementptr inbounds nuw i8, ptr %0, i64 4
  %5 = load i32, ptr %4, align 4, !tbaa !4
  %.not17 = icmp slt i32 %5, 1
  br i1 %.not17, label %.critedge, label %.lr.ph

.lr.ph:                                           ; preds = %3
  %6 = getelementptr inbounds nuw i8, ptr %0, i64 16
  %7 = load ptr, ptr %6, align 8, !tbaa !13
  %8 = load float, ptr %1, align 4, !tbaa !14
  %9 = getelementptr inbounds nuw i8, ptr %1, i64 4
  %10 = load float, ptr %9, align 4, !tbaa !14
  %11 = getelementptr inbounds nuw i8, ptr %1, i64 8
  %12 = load float, ptr %11, align 4, !tbaa !14
  %wide.trip.count = zext nneg i32 %5 to i64
  br label %13

13:                                               ; preds = %13, %.lr.ph
  %indvars.iv = phi i64 [ 0, %.lr.ph ], [ %indvars.iv.next, %13 ]
  %14 = getelementptr inbounds nuw %class.btVector3, ptr %7, i64 %indvars.iv
  %15 = load float, ptr %14, align 4, !tbaa !14
  %16 = getelementptr inbounds nuw i8, ptr %14, i64 4
  %17 = load float, ptr %16, align 4, !tbaa !14
  %18 = fmul float %17, %10
  %19 = tail call float @llvm.fmuladd.f32(float %15, float %8, float %18)
  %20 = getelementptr inbounds nuw i8, ptr %14, i64 8
  %21 = load float, ptr %20, align 4, !tbaa !14
  %22 = tail call noundef float @llvm.fmuladd.f32(float %21, float %12, float %19)
  %23 = getelementptr inbounds nuw i8, ptr %14, i64 12
  %24 = load float, ptr %23, align 4, !tbaa !14
  %25 = fadd float %22, %24
  %26 = fcmp ule float %25, %2
  %indvars.iv.next = add nuw nsw i64 %indvars.iv, 1
  %exitcond.not = icmp ne i64 %indvars.iv.next, %wide.trip.count
  %or.cond.not = select i1 %26, i1 %exitcond.not, i1 false
  br i1 %or.cond.not, label %13, label %.critedge, !llvm.loop !16

.critedge:                                        ; preds = %13, %3
  %.not.lcssa = phi i1 [ true, %3 ], [ %26, %13 ]
  ret i1 %.not.lcssa
}